; Function Attrs: mustprogress uwtable
define noundef zeroext i1 @_ZN4pkpy8Compiler19match_newlines_replEv(ptr noundef nonnull align 8 captures(none) dereferenceable(200) %0) local_unnamed_addr #5 align 2 {
  %2 = getelementptr inbounds nuw i8, ptr %0, i64 8
  %3 = load ptr, ptr %2, align 8
  %4 = getelementptr inbounds nuw i8, ptr %3, i64 32
  %5 = load i32, ptr %4, align 8
  %6 = icmp eq i32 %5, 2
  %7 = tail call noundef zeroext i1 @_ZN4pkpy8Compiler14match_newlinesEb(ptr noundef nonnull align 8 dereferenceable(200) %0, i1 noundef zeroext %6)
  ret i1 %7
}